(lp1
(S'http://iyfsearch.com/?dn=123456&pid=9PO755G95'
S'dn'
S'123456'
(lp2
S'jssq'
p3
aS'html'
p4
aS'tag'
p5
atp6
a(S'http://iyfsearch.com/?dn=123456&pid=9PO755G95'
S'pid'
S'9PO755G95'
(lp7
S'jssq'
p8
aS'html'
p9
atp10
a.