(lp1
((imodel
HttpRequest
(dp2
S'url'
p3
S'http://iyfsearch.com/?dn=123456&pid=9PO755G95'
p4
sS'headers'
p5
(dp6
S'Referer'
p7
S'https"//iyfsearch.com/'
p8
sS'Cookie'
p9
NsS'User-Agent'
p10
S'Mozilla/2.0 (X11; Linux x86_64) AppleWebKit/237.36 (KHTML, like Gecko) Chrome/62.0.3322.146 Safari/237.36'
p11
ssS'body'
p12
S''
sS'method'
p13
S'GET'
p14
sb(imodel
HttpResponse
(dp15
g5
(dp16
S'Transfer-Encoding'
p17
S'chunked'
p18
sS'Set-Cookie'
p19
S'vsid=914vr3236960327105806; expires=Tue, 10-Dec-2024 11:33:52 GMT; Max-Age=157680000; path=/; domain=iyfsearch.com; HttpOnly'
p20
sS'Connection'
p21
S'close'
p22
sS'Server'
p23
S'Apache'
p24
sS'X-Adblock-Key'
p25
S'MFwwDQYJKoZIhvcNAQEBBQADSwAwSAJBAKX74ixpzVyXbJprcLfbH4psP4+L2entqri0lzh6pkAaXLPIcclv6DQBeJJjGFWrBIF6QMyFwXT5CCRyjS2penECAwEAAQ==_TbDwq+kfoatqoSREJjZaa/u3j4FJfQrM+QzsIPNxumcPq2yRQfBrm7AX/5XRo+Eg0woMUSaWHNsfp39WtaBGVw=='
p26
sS'Date'
p27
S'Thu, 12 Dec 2019 11:33:52 GMT'
p28
sS'Content-Type'
p29
S'text/html; charset=UTF-8'
p30
ssS'reason'
p31
S'OK'
p32
sS'code'
p33
S'200'
p34
sS'data'
p35
S'<!DOCTYPE html PUBLIC "-//W3C//DTD HTML 4.01//EN" "http://www.w3.org/TR/html4/strict.dtd">\r\n<html>\r\n<head><script type="text/javascript">var abp;</script><script type="text/javascript" src="http://iyfsearch.com/px.js?ch=1"></script><script type="text/javascript" src="http://iyfsearch.com/px.js?ch=2"></script><script type="text/javascript">function handleABPDetect(){try{var imglog = document.createElement("img");imglog.style.height="0px";imglog.style.width="0px";imglog.src="http://iyfsearch.com/sk-logabpstatus.php?a=WUpCdDMrOG5iUkxvSitlU3FRR09YMU0zQlRpdG5rYjdWR1ZwWVNGQzB0dlNmNTBSalhyTFF1ZVFDNTB4OU9PTFFiWWgzeEZZenZmSUFEai91UVBhdm53djNtU0pFUE5LMkttcGVEcGk1aEk9&b="+abp;document.body.appendChild(imglog);}catch(err){}}</script><meta name="tids" content="a=\'26877\' b=\'30923\' c=\'123456\' d=\'manual_mapped\'" /><title>123456</title>\r\n<meta http-equiv="Content-Type" content="text/html; charset=UTF-8">\r\n<meta name="viewport" content="width=device-width, initial-scale=1, maximum-scale=1">\r\n<style type="text/css">\r\n\n@font-face {font-family: "open-sans";src: url("http://i3.cdn-image.com/__media__/fonts/open-sans/open-sans.eot");src: url("http://i3.cdn-image.com/__media__/fonts/open-sans/open-sans.eot?#iefix") format("embedded-opentype"),url("http://i3.cdn-image.com/__media__/fonts/open-sans/open-sans.woff") format("woff"),url("http://i3.cdn-image.com/__media__/fonts/open-sans/open-sans.woff2") format("woff2"),url("http://i3.cdn-image.com/__media__/fonts/open-sans/open-sans.ttf") format("truetype"),url("http://i3.cdn-image.com/__media__/fonts/open-sans/open-sans.otf") format("opentype"),url("http://i3.cdn-image.com/__media__/fonts/open-sans/open-sans.svg#open-sans") format("svg");font-weight: normal;font-style: normal;}\n@font-face {font-family: "open-sans-bold";src: url("http://i3.cdn-image.com/__media__/fonts/open-sans-bold/open-sans-bold.eot");src: url("http://i3.cdn-image.com/__media__/fonts/open-sans-bold/open-sans-bold.eot?#iefix") format("embedded-opentype"),url("http://i3.cdn-image.com/__media__/fonts/open-sans-bold/open-sans-bold.woff") format("woff"),url("http://i3.cdn-image.com/__media__/fonts/open-sans-bold/open-sans-bold.woff2") format("woff2"),url("http://i3.cdn-image.com/__media__/fonts/open-sans-bold/open-sans-bold.ttf") format("truetype"),url("http://i3.cdn-image.com/__media__/fonts/open-sans-bold/open-sans-bold.otf") format("opentype"),url("http://i3.cdn-image.com/__media__/fonts/open-sans-bold/open-sans-bold.svg#open-sans-bold") format("svg");font-weight: normal;font-style: normal;}\n@font-face {font-family: "open-sans-semibold";src: url("http://i3.cdn-image.com/__media__/fonts/open-sans-semibold/open-sans-semibold.eot");src: url("http://i3.cdn-image.com/__media__/fonts/open-sans-semibold/open-sans-semibold.eot?#iefix") format("embedded-opentype"),url("http://i3.cdn-image.com/__media__/fonts/open-sans-semibold/open-sans-semibold.woff") format("woff"),url("http://i3.cdn-image.com/__media__/fonts/open-sans-semibold/open-sans-semibold.woff2") format("woff2"),url("http://i3.cdn-image.com/__media__/fonts/open-sans-semibold/open-sans-semibold.ttf") format("truetype"),url("http://i3.cdn-image.com/__media__/fonts/open-sans-semibold/open-sans-semibold.otf") format("opentype"),url("http://i3.cdn-image.com/__media__/fonts/open-sans-semibold/open-sans-semibold.svg#open-sans-semibold") format("svg");font-weight: normal;font-style: normal;}\t\t\t\t\t\t\r\n*{margin:0; padding:0;}\r\na {text-decoration:none; outline:none}\r\na img {border:none}\r\nli {list-style:none}\r\n.clear {clear:both; overflow:hidden; line-height:0; font-size:0; height:0}\r\n.clearfix:after{visibility:hidden;display:block;font-size:0;content:" ";clear: both;height:0}\r\n* html .clearfix{zoom:1}\r\n*:first-child+html .clearfix{zoom:1}\r\na{text-decoration:none}\r\ninput{outline:none}\r\nhtml{height: 100%}\r\nbody{-webkit-text-size-adjust:100%;font-size:14px;font-family:\n  open-sans \n,Helvetica,sans-serif;height: 100%;background: url(http://i2.cdn-image.com/__media__/pics/26869/bodybg.jpg) no-repeat center;background-size: cover;background-attachment: fixed}\r\n.main-container{width: 1080px; margin: 0 auto;}\r\n.contentWrap{min-height: calc(100vh - 158px)}\r\n\r\n.popular-searches{padding: 150px 0 0;width: 500px;margin:0 auto;}\r\n.popular-searches ul.first{  list-style: none;margin:0 auto;}\r\n#lastUL{margin: 0}\r\n.popular-searches ul.first li{border-radius: 40px; margin-bottom: 15px;-webkit-text-size-adjust: 100%;color: #ffffff;text-align: left;word-wrap: break-word; background:#fff;}\r\n.popular-searches ul.first li a{border-radius: 40px;font-size: 21px; color:  #0a0023; line-height: 24px;word-wrap: break-word;background: url(http://i3.cdn-image.com/__media__/pics/26869/landerarrow.png) no-repeat  right 10px center;padding:21px 75px 21px 30px;display: block;font-family: \n  open-sans-bold \n,arial;}\r\n.popular-searches ul.first li:hover a{background: url(http://i1.cdn-image.com/__media__/pics/26869/landerarrowh.png) no-repeat right 10px center;color:#fff;text-decoration: none;}\r\n.popular-searches ul.first li:hover{background: #220e55}\r\n\r\ninput:-webkit-autofill {\r\n    -webkit-box-shadow: 0 0 0 1000px #3A3A3A inset !important;\r\n}\r\n.website{float: left;max-width: 50%;}\r\n.website a{word-wrap: break-word; font-size: 28px;font-weight: 600;color: #fff;font-family:\n  open-sans-semibold \n, Arial, Helvetica, sans-serif; display:block;}\r\n.header{margin: 0px 0 0px 0;background-color: #180743;padding: 16px 0;}\r\n\r\n.footer {text-align:center; color:#ccc; width:100%; padding:40px 0 0}\r\n.footer a {color:#999; font-size:11px; text-decoration:none; word-wrap: break-word;}\r\n.footer a:hover {text-decoration:underline; color:#333}\r\n\r\n.footer-related{text-align: center;padding: 30px 0;border-top:1px solid #db85b2;}\r\n.footer-related a{color: #fffdff;font-size: 16px;display: inline; word-wrap: break-word;font-family: \n  open-sans-bold \n,arial;}\r\n.footer-related a:hover{color:#180743}\r\n.footer-related span{margin-right: 20px;color: #fff;font-size: 16px;display: inline;font-family:\n  open-sans-semibold \n, Arial, Helvetica, sans-serif;}\r\n.footer-related li{display: inline; word-wrap: break-word;}\r\n.footer-related .sepr {opacity: 0.5;color:#fff;font-size:24px;line-height: 24px;padding:0 45px;}\r\ndiv.search-form{height:39px; margin:0 auto;width: 300px; background: #4b28a3;border-radius: 20px;float: right}\r\n.srchTxt{background: transparent; border: 0px none; float: left; font-size: 16px; height: 29px; line-height: 29px; padding: 5px 10px; width: 245px;-webkit-border-radius:0;-moz-border-radius:0;border-radius:0;color: #ffffff}\r\n.srchBtn {background: url(http://i2.cdn-image.com/__media__/pics/26869/search-icon.png) no-repeat center center; border: none; color: #fff; cursor: pointer; float: right; font-size: 14px; height: 19px; outline: medium none; width: 19px;-webkit-appearance:none;-webkit-border-radius:0;-moz-border-radius:0;border-radius:0;text-transform: uppercase;margin: 10px 15px 0 0;}\r\n.custom-msg {text-align: center;background-color: #fff}\r\n\r\ndiv#optOutLink{ padding-top: 30px}\r\n.no-results{text-align: center; padding: 10px 10px 0; color: #ffffff;font-size: 15px }\r\n\r\n\r\n.privacy{text-align: center;padding-bottom: 10px;}\r\n.privacy a{color:#fff;text-align: center;font-size: 11px}\r\n.privacy a:hover{text-decoration: underline}\r\n\r\n#trademark-footer {padding: 15px 0; text-align: center; font-size: 12px; background-color:#232a33;margin-bottom: 20px}\r\n.trademark-foottxt a {color: #ffffff; font-size: 13px; line-height: 28px; }\r\n.trademark-foottxt a:hover{text-decoration: underline;}\r\n\r\n\r\n@media only screen and (max-width:1150px) {\r\n.main-container{width: 95%}\r\n}\r\n\r\n@media only screen and (max-width:767px) {\r\n    .sponslink {font-size: 15px;margin-bottom: 10px}\r\n    .website{text-align: center;margin:0 auto;float: none;max-width: unset;}\r\n    .website a{display: inline;font-size: 25px}\r\n    div.search-form{margin:15px auto 0;float: none;width: 280px}\r\n    .srchTxt{width: 225px;font-size: 14px}\r\n    .header .main-container{margin-bottom: 0}\r\n    .popular-searches {width: auto;padding:30px 0 0}\r\n    .popular-searches ul.first li{margin-bottom: 13px}\r\n    .popular-searches ul.first li a{padding: 20px 65px 20px 20px;font-size: 18px;background-size: 45px}\r\n    .popular-searches ul.first li:hover a{background-size: 45px}\r\n    .footer-related li{padding-bottom: 10px; display: block;text-align: left}\r\n    .footer-related a{font-size: 15px}\r\n    .footer-related .sepr{display: none}\r\n    .contentWrap{min-height: auto}\r\n    .privacy{margin-top:15px}\r\n    ul.privacy{text-align: center}\r\n}\r\n\r\n</style>\r\n\r\n<!--[if lte IE 8]>\r\n   <style type="text/css">\r\n    body{background-position:center top;background-color:#dd107a}\r\n    .popular-searches ul.first li a{background: url(http://i3.cdn-image.com/__media__/pics/26869/landerarrow.png) no-repeat  98% center}\r\n    .popular-searches ul.first li:hover a{background: url(http://i2.cdn-image.com/__media__/pics/26869/landerarrowh.png) no-repeat 98% center}\r\n    .contentWrap{min-height: 82%}\r\n    </style>\r\n<![endif]-->\r\n\r\n<script language="JavaScript" type="text/javascript" src="http://i3.cdn-image.com/__media__/js/min.js?v2.2"></script>\r\n</head>\r\n\r\n<body onload="" onunload="" onBeforeUnload=""><div style="visibility:hidden;display:none;" id="divSponAds"><form name="frmSponsAds" id="frmSponsAds" method="get" action="" target="_blank"><input type="hidden" name="params" id="params" /></form></div>        <div class="clearfix header">\r\n        <div class="main-container clearfix"> \r\n            <div class="website"><a href="123456" target="_blank">123456</a></div>\r\n                <div class="search-form clearfix">\r\n                    <form id="searchform1"   name="searchform1"  action="http://iyfsearch.com/display.cfm" method="get" target="_top" onsubmit="showPop=0;" >                    \r\n                        <input name="s" type="text" onClick="this.value=\'\';"   class="srchTxt" />\r\n                        <input type="submit" class="srchBtn" value="" />\r\n                    <input type="hidden" name="gsp" value="eEUyVEZBN2Zadmd0ZUFNdHBDcmZnSHVsa1F2Qms0NWJvWk1zdG9rTFFGTm5NZHF2TDNhSWR0NklEUlQvT09yejRmVEQvUVZDTWVieG8wb2VURWd3VTZTa2UwY1MyajQ2by9kNUx4K2RHUkF3RlMrREY1NmFCSFJDM2xRRXZIRjFTWXJKRTdMdGM0M3REbk1PRS9ZZGpUQmk4dXlPbmNlMDQyY0Z2TlVvUnhyUHZkRVJxTUJ3UHdjQVp2ZzFuTnFpS3gvNHp4QUhTY3FmUlJBVFJ2OWo2cTYzZDFodDlFbDl1Slk1WHBKNnlZejRqNkhLVzNaK1JLdDNRYlpPc0M0ekVhMy80eHNMei9VSmJ2MUJMMko5U1BLelJBcXVWSnJBUTFFNDFTcU1OWjRIaXE3Ny9YSEpKa0FuZzFoVG1mSjZTeVpnc1NWUHk1RmN6RmhwSEo1emV4R3dtZHlEUWs3eDNIZDE1M2J0ajlIaTQ1TjdzSW1DWnNzdG1qTGl1MDZJOU0wLy9qY0UxZlRBTHAxZVhmeDFoSUw2Yk5aREppNkdBSHZTTHIyYnNTZz0%3D" /></form>          \r\n                </div>\r\n        </div>\r\n    </div>\r\n    <div class="contentWrap">\r\n    <div class="main-container" id="main"> \r\n        <div class="popular-searches clearfix">\r\n            <ul class="clearfix first"> \r\n              <li><a href="http://iyfsearch.com/Best_Password_Manager.cfm?domain=123456.com&fp=CCuz5sdCUjOqwX6LARcCKtKbSX3qdE1uzVPRPHPo4QHna4pDDWB2aqPl6SUWGmxcj7SoiawGrzzrpagOGmilhdy3%2FxxV81%2FZcPvxN2BQR1wY%2FoJcyKVwwnTfKti29%2BiDkevZCeQaDVD%2FSguc80pxZitOypJmYb8FUGqjjy0jxW1moWsdX9UqpSt%2BYAkukDfj5%2BgaEgxxnfOt1bO6LDQJ0Q%3D%3D&maxads=0&kld=1063&prvtof=P7OtFLHt9QDT10wjiZkPwTGPrbvQD5vyGCqxPb2HniLyzN1xqgmTaH424BY4ce%2FA&&&kt=319&&kbc=33926&ki=3481836&ktd=2199023386624&kld=1063&kp=1" target="_top" onmouseover="changeStatus(\'Best Password Manager\');return true;" onmouseout="changeStatus(\'\');return true;" onclick="if(typeof(showPop) != \'undefined\')showPop=0;return modifyKeywordClickURL(this, \'kwclk\');;" title="Best Password Manager" id="dk1" name="dk1" >Best Password Manager</a></li>\r\n              <li><a href="http://iyfsearch.com/Random_Password_Generator.cfm?domain=123456.com&fp=CCuz5sdCUjOqwX6LARcCKtKbSX3qdE1uzVPRPHPo4QHna4pDDWB2aqPl6SUWGmxcj7SoiawGrzzrpagOGmilhdy3%2FxxV81%2FZcPvxN2BQR1wY%2FoJcyKVwwnTfKti29%2BiDkevZCeQaDVD%2FSguc80pxZitOypJmYb8FUGqjjy0jxW1moWsdX9UqpSt%2BYAkukDfj5%2BgaEgxxnfOt1bO6LDQJ0Q%3D%3D&maxads=0&kld=1063&prvtof=P7OtFLHt9QDT10wjiZkPwTGPrbvQD5vyGCqxPb2HniLyzN1xqgmTaH424BY4ce%2FA&&&kt=319&&kbc=33926&ki=23795856&ktd=2199023452160&kld=1063&kp=2" target="_top" onmouseover="changeStatus(\'Random Password Generator\');return true;" onmouseout="changeStatus(\'\');return true;" onclick="if(typeof(showPop) != \'undefined\')showPop=0;return modifyKeywordClickURL(this, \'kwclk\');;" title="Random Password Generator" id="dk2" name="dk2" >Random Password Generator</a></li>\r\n              <li><a href="http://iyfsearch.com/Anti_Hacking_Apps.cfm?domain=123456.com&fp=CCuz5sdCUjOqwX6LARcCKtKbSX3qdE1uzVPRPHPo4QHna4pDDWB2aqPl6SUWGmxcj7SoiawGrzzrpagOGmilhdy3%2FxxV81%2FZcPvxN2BQR1wY%2FoJcyKVwwnTfKti29%2BiDkevZCeQaDVD%2FSguc80pxZitOypJmYb8FUGqjjy0jxW1moWsdX9UqpSt%2BYAkukDfj5%2BgaEgxxnfOt1bO6LDQJ0Q%3D%3D&maxads=0&kld=1063&prvtof=P7OtFLHt9QDT10wjiZkPwTGPrbvQD5vyGCqxPb2HniLyzN1xqgmTaH424BY4ce%2FA&&&kt=271&&kbc=33926&ki=321370844&ktd=0&kld=1063&kp=3" target="_top" onmouseover="changeStatus(\'Anti Hacking Apps\');return true;" onmouseout="changeStatus(\'\');return true;" onclick="if(typeof(showPop) != \'undefined\')showPop=0;return modifyKeywordClickURL(this, \'kwclk\');;" title="Anti Hacking Apps" id="dk3" name="dk3" >Anti Hacking Apps</a></li>\r\n              <li><a href="http://iyfsearch.com/Spyware_Removal.cfm?domain=123456.com&fp=CCuz5sdCUjOqwX6LARcCKtKbSX3qdE1uzVPRPHPo4QHna4pDDWB2aqPl6SUWGmxcj7SoiawGrzzrpagOGmilhdy3%2FxxV81%2FZcPvxN2BQR1wY%2FoJcyKVwwnTfKti29%2BiDkevZCeQaDVD%2FSguc80pxZitOypJmYb8FUGqjjy0jxW1moWsdX9UqpSt%2BYAkukDfj5%2BgaEgxxnfOt1bO6LDQJ0Q%3D%3D&maxads=0&kld=1063&prvtof=P7OtFLHt9QDT10wjiZkPwTGPrbvQD5vyGCqxPb2HniLyzN1xqgmTaH424BY4ce%2FA&&&kt=271&&kbc=33926&ki=26882729&ktd=0&kld=1063&kp=4" target="_top" onmouseover="changeStatus(\'Spyware Removal\');return true;" onmouseout="changeStatus(\'\');return true;" onclick="if(typeof(showPop) != \'undefined\')showPop=0;return modifyKeywordClickURL(this, \'kwclk\');;" title="Spyware Removal" id="dk4" name="dk4" >Spyware Removal</a></li>\r\n              <li><a href="http://iyfsearch.com/Identity_Theft_Protection.cfm?domain=123456.com&fp=CCuz5sdCUjOqwX6LARcCKtKbSX3qdE1uzVPRPHPo4QHna4pDDWB2aqPl6SUWGmxcj7SoiawGrzzrpagOGmilhdy3%2FxxV81%2FZcPvxN2BQR1wY%2FoJcyKVwwnTfKti29%2BiDkevZCeQaDVD%2FSguc80pxZitOypJmYb8FUGqjjy0jxW1moWsdX9UqpSt%2BYAkukDfj5%2BgaEgxxnfOt1bO6LDQJ0Q%3D%3D&maxads=0&kld=1063&prvtof=P7OtFLHt9QDT10wjiZkPwTGPrbvQD5vyGCqxPb2HniLyzN1xqgmTaH424BY4ce%2FA&&&kt=271&&kbc=33926&ki=14678931&ktd=0&kld=1063&kp=5" target="_top" onmouseover="changeStatus(\'Identity Theft Protection\');return true;" onmouseout="changeStatus(\'\');return true;" onclick="if(typeof(showPop) != \'undefined\')showPop=0;return modifyKeywordClickURL(this, \'kwclk\');;" title="Identity Theft Protection" id="dk5" name="dk5" >Identity Theft Protection</a></li>\r\n            </ul>\r\n        </div>\r\n    <ul class="privacy clearfix">\r\n            </ul>\r\n    </div>\r\n    \r\n    </div>\r\n     <!-- <div class="footer-related">\r\n        <div class="main-container">\r\n                <ul class="clearfix bottom"> \r\n                  <li><span>Related links: </span></li>\r\n                  <li><a href="http://iyfsearch.com/Spyware_Removal.cfm?domain=123456.com&fp=CCuz5sdCUjOqwX6LARcCKtKbSX3qdE1uzVPRPHPo4QHna4pDDWB2aqPl6SUWGmxcj7SoiawGrzzrpagOGmilhdy3%2FxxV81%2FZcPvxN2BQR1wY%2FoJcyKVwwnTfKti29%2BiDkevZCeQaDVD%2FSguc80pxZitOypJmYb8FUGqjjy0jxW1moWsdX9UqpSt%2BYAkukDfj5%2BgaEgxxnfOt1bO6LDQJ0Q%3D%3D&maxads=0&kld=1063&prvtof=P7OtFLHt9QDT10wjiZkPwTGPrbvQD5vyGCqxPb2HniLyzN1xqgmTaH424BY4ce%2FA&&&kt=271&&kbc=33926&ki=26882729&ktd=0&kld=1063&kp=4" target="_top" onmouseover="changeStatus(\'Spyware Removal\');return true;" onmouseout="changeStatus(\'\');return true;" onclick="if(typeof(showPop) != \'undefined\')showPop=0;return modifyKeywordClickURL(this, \'kwclk\');;" title="Spyware Removal" id="dk4" name="dk4" >Spyware Removal</a></li>\r\n                  <li class="sepr">|</li>\r\n                  <li><a href="http://iyfsearch.com/Identity_Theft_Protection.cfm?domain=123456.com&fp=CCuz5sdCUjOqwX6LARcCKtKbSX3qdE1uzVPRPHPo4QHna4pDDWB2aqPl6SUWGmxcj7SoiawGrzzrpagOGmilhdy3%2FxxV81%2FZcPvxN2BQR1wY%2FoJcyKVwwnTfKti29%2BiDkevZCeQaDVD%2FSguc80pxZitOypJmYb8FUGqjjy0jxW1moWsdX9UqpSt%2BYAkukDfj5%2BgaEgxxnfOt1bO6LDQJ0Q%3D%3D&maxads=0&kld=1063&prvtof=P7OtFLHt9QDT10wjiZkPwTGPrbvQD5vyGCqxPb2HniLyzN1xqgmTaH424BY4ce%2FA&&&kt=271&&kbc=33926&ki=14678931&ktd=0&kld=1063&kp=5" target="_top" onmouseover="changeStatus(\'Identity Theft Protection\');return true;" onmouseout="changeStatus(\'\');return true;" onclick="if(typeof(showPop) != \'undefined\')showPop=0;return modifyKeywordClickURL(this, \'kwclk\');;" title="Identity Theft Protection" id="dk5" name="dk5" >Identity Theft Protection</a></li>\r\n                  <li class="sepr">|</li>\r\n                  <li><a href="http://iyfsearch.com/Computer_Security_Tips.cfm?domain=123456.com&fp=CCuz5sdCUjOqwX6LARcCKtKbSX3qdE1uzVPRPHPo4QHna4pDDWB2aqPl6SUWGmxcj7SoiawGrzzrpagOGmilhdy3%2FxxV81%2FZcPvxN2BQR1wY%2FoJcyKVwwnTfKti29%2BiDkevZCeQaDVD%2FSguc80pxZitOypJmYb8FUGqjjy0jxW1moWsdX9UqpSt%2BYAkukDfj5%2BgaEgxxnfOt1bO6LDQJ0Q%3D%3D&maxads=0&kld=1063&prvtof=P7OtFLHt9QDT10wjiZkPwTGPrbvQD5vyGCqxPb2HniLyzN1xqgmTaH424BY4ce%2FA&&&kt=271&&kbc=33926&ki=6673816&ktd=0&kld=1063&kp=6" target="_top" onmouseover="changeStatus(\'Computer Security Tips\');return true;" onmouseout="changeStatus(\'\');return true;" onclick="if(typeof(showPop) != \'undefined\')showPop=0;return modifyKeywordClickURL(this, \'kwclk\');;" title="Computer Security Tips" id="dk6" name="dk6" >Computer Security Tips</a></li>\r\n                </ul>\r\n        </div>\r\n    </div> -->\r\n        \r\n \r\n<script type="text/javascript" language="javascript">\ntry{handleABPDetect();}catch(err){}\n</script>\n<div style=\'display:none;visibility:hidden;\'><script language="javascript" > function _bpx_() { try {var saScript = document.createElement("script"); saScript.src = location.protocol + "//pxlgnpgecom-a.akamaihd.net/javascripts/browserfp.min.js?templateId=10";  saScript.async = "async"; document.body.appendChild(saScript); saScript.onload = function() {try{var fp_instance = new browserfp();var pageAttr = {};pageAttr.kw_id = \'\';pageAttr.kw_pos = \'0\';pageAttr.page_id = \'landing_page\';pageAttr.vi_id = \'1143236960327405806\';pageAttr.vs_id = \'914vr3236960327105806\';pageAttr.hvs_id = \'914vt3236960327105806\';pageAttr.req_dom=\'123456.com\';pageAttr.refUrl=\'https"//iyfsearch.com/\';pageAttr.srcUrl=\'http://iyfsearch.com/?dn=123456&pid=9PO755G95\';pageAttr.cust_id=\'9CUO250V9\';pageAttr.pid = \'9PO755G95\';fp_instance.setPageAttr(pageAttr);fp_instance.sendViewData();}catch(e){}};} catch(e){} }  try { if(typeof(_bpx_) == \'function\'){ _bpx_(); } } catch(e){} </script>  </div><script type="text/javascript">if(relplaceAllALinks) relplaceAllALinks(/(\\/trf|\\.cfm)\\?/);</script><script language="javascript" type="text/javascript" > var __pp = [];  atevt();  </script> </body>\r\n</html>'
p36
sbtp37
a.